target datalayout = "e-m:e-p270:32:32-p271:32:32-p272:64:64-i64:64-i128:128-f80:128-n8:16:32:64-S128"
target triple = "x86_64-pc-linux-gnu"

%struct.H5FL_reg_head_t = type { i8, i32, i32, ptr, i64, ptr }
%struct.H5C_class_t = type { i32, ptr, i32, i32, ptr, ptr, ptr, ptr, ptr, ptr, ptr, ptr, ptr, ptr }
%struct.H5O_t = type { %struct.H5C_cache_entry_t, i64, i64, i8, i64, i8, i32, i8, i8, i64, i64, i64, i64, i32, i32, i64, i64, ptr, i64, i64, i64, i64, ptr, i8, ptr }
%struct.H5C_cache_entry_t = type { ptr, i64, i64, ptr, i8, ptr, i8, i8, i8, i8, i32, i8, i8, i8, i8, i8, i32, ptr, i32, i32, i32, i32, i32, i8, i8, ptr, ptr, ptr, ptr, ptr, ptr, i8, i32, i8, i64, ptr, i64, i64, i32, i8, i32, i32, i8, ptr, ptr, ptr }
%struct.H5O_chunk_proxy_t = type { %struct.H5C_cache_entry_t, ptr, ptr, i32, ptr }
%struct.H5O_chunk_t = type { i64, i64, i64, ptr, ptr }

@H5_H5O_chunk_proxy_t_reg_free_list = global %struct.H5FL_reg_head_t { i8 0, i32 0, i32 0, ptr @.str, i64 280, ptr null }, align 8
@.str.1 = private unnamed_addr constant [102 x i8] c"generated/home/dtcxzyw/WorkSpace/Projects/compilers/llvm-opt-benchmark/bench/hdf5/hdf5/src/H5Ochunk.c\00", align 1
@H5E_OHDR_g = external global i64, align 8
@H5AC_OHDR_CHK = external constant [1 x %struct.H5C_class_t], align 16
@H5E_CANTUNPROTECT_g = external global i64, align 8
@__func__.H5O__chunk_unprotect = private unnamed_addr constant [21 x i8] c"H5O__chunk_unprotect\00", align 1
@H5E_CANTMARKDIRTY_g = external global i64, align 8
@.str.8 = private unnamed_addr constant [38 x i8] c"unable to mark object header as dirty\00", align 1
@H5E_CANTDEC_g = external global i64, align 8
@.str.9 = private unnamed_addr constant [49 x i8] c"can't decrement reference count on object header\00", align 1
@.str.10 = private unnamed_addr constant [38 x i8] c"unable to release object header chunk\00", align 1

; Function Attrs: nounwind uwtable
define i32 @H5O__chunk_unprotect(ptr noundef %0, ptr noundef %1, i1 noundef zeroext %2) #0 {
  %4 = alloca ptr, align 8
  %5 = alloca ptr, align 8
  %6 = alloca i8, align 1
  %7 = alloca i32, align 4
  %8 = alloca i8, align 1
  store ptr %0, ptr %4, align 8
  store ptr %1, ptr %5, align 8
  %9 = zext i1 %2 to i8
  store i8 %9, ptr %6, align 1
  store i32 0, ptr %7, align 4
  store i8 0, ptr %8, align 1
  %10 = load ptr, ptr %5, align 8
  %11 = getelementptr inbounds %struct.H5O_chunk_proxy_t, ptr %10, i32 0, i32 3
  %12 = load i32, ptr %11, align 8
  %13 = icmp eq i32 0, %12
  br i1 %13, label %14, label %63

14:                                               ; preds = %3
  %15 = load i8, ptr %6, align 1
  %16 = trunc i8 %15 to i1
  br i1 %16, label %17, label %39

17:                                               ; preds = %14
  %18 = load ptr, ptr %5, align 8
  %19 = getelementptr inbounds %struct.H5O_chunk_proxy_t, ptr %18, i32 0, i32 2
  %20 = load ptr, ptr %19, align 8
  %21 = call i32 @H5AC_mark_entry_dirty(ptr noundef %20)
  %22 = icmp slt i32 %21, 0
  br i1 %22, label %23, label %38

23:                                               ; preds = %17
  br label %24

24:                                               ; preds = %23
  br label %25

25:                                               ; preds = %24
  br label %26

26:                                               ; preds = %25
  %27 = load i64, ptr @H5E_OHDR_g, align 8
  %28 = load i64, ptr @H5E_CANTMARKDIRTY_g, align 8
  %29 = call i32 (ptr, ptr, i32, i64, i64, ptr, ...) @H5E_printf_stack(ptr noundef @.str.1, ptr noundef @__func__.H5O__chunk_unprotect, i32 noundef 228, i64 noundef %27, i64 noundef %28, ptr noundef @.str.8)
  br label %30

30:                                               ; preds = %26
  store i8 1, ptr %8, align 1
  %31 = load i8, ptr %8, align 1
  %32 = trunc i8 %31 to i1
  %33 = zext i1 %32 to i8
  store i8 %33, ptr %8, align 1
  br label %34

34:                                               ; preds = %30
  br label %35

35:                                               ; preds = %34
  store i32 -1, ptr %7, align 4
  br label %100

36:                                               ; No predecessors!
  br label %37

37:                                               ; preds = %36
  br label %38

38:                                               ; preds = %37, %17
  br label %39

39:                                               ; preds = %38, %14
  %40 = load ptr, ptr %5, align 8
  %41 = getelementptr inbounds %struct.H5O_chunk_proxy_t, ptr %40, i32 0, i32 2
  %42 = load ptr, ptr %41, align 8
  %43 = call i32 @H5O__dec_rc(ptr noundef %42)
  %44 = icmp slt i32 %43, 0
  br i1 %44, label %45, label %60

45:                                               ; preds = %39
  br label %46

46:                                               ; preds = %45
  br label %47

47:                                               ; preds = %46
  br label %48

48:                                               ; preds = %47
  %49 = load i64, ptr @H5E_OHDR_g, align 8
  %50 = load i64, ptr @H5E_CANTDEC_g, align 8
  %51 = call i32 (ptr, ptr, i32, i64, i64, ptr, ...) @H5E_printf_stack(ptr noundef @.str.1, ptr noundef @__func__.H5O__chunk_unprotect, i32 noundef 233, i64 noundef %49, i64 noundef %50, ptr noundef @.str.9)
  br label %52

52:                                               ; preds = %48
  store i8 1, ptr %8, align 1
  %53 = load i8, ptr %8, align 1
  %54 = trunc i8 %53 to i1
  %55 = zext i1 %54 to i8
  store i8 %55, ptr %8, align 1
  br label %56

56:                                               ; preds = %52
  br label %57

57:                                               ; preds = %56
  store i32 -1, ptr %7, align 4
  br label %100

58:                                               ; No predecessors!
  br label %59

59:                                               ; preds = %58
  br label %60

60:                                               ; preds = %59, %39
  %61 = load ptr, ptr %5, align 8
  %62 = call ptr @H5FL_reg_free(ptr noundef @H5_H5O_chunk_proxy_t_reg_free_list, ptr noundef %61)
  store ptr %62, ptr %5, align 8
  br label %99

63:                                               ; preds = %3
  %64 = load ptr, ptr %4, align 8
  %65 = load ptr, ptr %5, align 8
  %66 = getelementptr inbounds %struct.H5O_chunk_proxy_t, ptr %65, i32 0, i32 2
  %67 = load ptr, ptr %66, align 8
  %68 = getelementptr inbounds %struct.H5O_t, ptr %67, i32 0, i32 22
  %69 = load ptr, ptr %68, align 8
  %70 = load ptr, ptr %5, align 8
  %71 = getelementptr inbounds %struct.H5O_chunk_proxy_t, ptr %70, i32 0, i32 3
  %72 = load i32, ptr %71, align 8
  %73 = zext i32 %72 to i64
  %74 = getelementptr inbounds %struct.H5O_chunk_t, ptr %69, i64 %73
  %75 = getelementptr inbounds %struct.H5O_chunk_t, ptr %74, i32 0, i32 0
  %76 = load i64, ptr %75, align 8
  %77 = load ptr, ptr %5, align 8
  %78 = load i8, ptr %6, align 1
  %79 = trunc i8 %78 to i1
  %80 = select i1 %79, i32 2, i32 0
  %81 = call i32 @H5AC_unprotect(ptr noundef %64, ptr noundef @H5AC_OHDR_CHK, i64 noundef %76, ptr noundef %77, i32 noundef %80)
  %82 = icmp slt i32 %81, 0
  br i1 %82, label %83, label %98

83:                                               ; preds = %63
  br label %84

84:                                               ; preds = %83
  br label %85

85:                                               ; preds = %84
  br label %86

86:                                               ; preds = %85
  %87 = load i64, ptr @H5E_OHDR_g, align 8
  %88 = load i64, ptr @H5E_CANTUNPROTECT_g, align 8
  %89 = call i32 (ptr, ptr, i32, i64, i64, ptr, ...) @H5E_printf_stack(ptr noundef @.str.1, ptr noundef @__func__.H5O__chunk_unprotect, i32 noundef 242, i64 noundef %87, i64 noundef %88, ptr noundef @.str.10)
  br label %90

90:                                               ; preds = %86
  store i8 1, ptr %8, align 1
  %91 = load i8, ptr %8, align 1
  %92 = trunc i8 %91 to i1
  %93 = zext i1 %92 to i8
  store i8 %93, ptr %8, align 1
  br label %94

94:                                               ; preds = %90
  br label %95

95:                                               ; preds = %94
  store i32 -1, ptr %7, align 4
  br label %100

96:                                               ; No predecessors!
  br label %97

97:                                               ; preds = %96
  br label %98

98:                                               ; preds = %97, %63
  br label %99

99:                                               ; preds = %98, %60
  br label %100

100:                                              ; preds = %99, %95, %57, %35
  %101 = load i32, ptr %7, align 4
  ret i32 %101
}