; Function Attrs: nounwind uwtable
define range(i32 -1, 1) i32 @H5O__chunk_unprotect(ptr noundef %0, ptr noundef %1, i1 noundef zeroext %2) local_unnamed_addr #0 {
  %4 = getelementptr inbounds i8, ptr %1, i64 264
  %5 = load i32, ptr %4, align 8
  %6 = icmp eq i32 %5, 0
  br i1 %6, label %7, label %28

7:                                                ; preds = %3
  br i1 %2, label %8, label %17

8:                                                ; preds = %7
  %9 = getelementptr inbounds i8, ptr %1, i64 256
  %10 = load ptr, ptr %9, align 8
  %11 = tail call i32 @H5AC_mark_entry_dirty(ptr noundef %10) #3
  %12 = icmp slt i32 %11, 0
  br i1 %12, label %13, label %17

13:                                               ; preds = %8
  %14 = load i64, ptr @H5E_OHDR_g, align 8
  %15 = load i64, ptr @H5E_CANTMARKDIRTY_g, align 8
  %16 = tail call i32 (ptr, ptr, i32, i64, i64, ptr, ...) @H5E_printf_stack(ptr noundef nonnull @.str.1, ptr noundef nonnull @__func__.H5O__chunk_unprotect, i32 noundef 228, i64 noundef %14, i64 noundef %15, ptr noundef nonnull @.str.8) #3
  br label %43

17:                                               ; preds = %8, %7
  %18 = getelementptr inbounds i8, ptr %1, i64 256
  %19 = load ptr, ptr %18, align 8
  %20 = tail call i32 @H5O__dec_rc(ptr noundef %19) #3
  %21 = icmp slt i32 %20, 0
  br i1 %21, label %22, label %26

22:                                               ; preds = %17
  %23 = load i64, ptr @H5E_OHDR_g, align 8
  %24 = load i64, ptr @H5E_CANTDEC_g, align 8
  %25 = tail call i32 (ptr, ptr, i32, i64, i64, ptr, ...) @H5E_printf_stack(ptr noundef nonnull @.str.1, ptr noundef nonnull @__func__.H5O__chunk_unprotect, i32 noundef 233, i64 noundef %23, i64 noundef %24, ptr noundef nonnull @.str.9) #3
  br label %43

26:                                               ; preds = %17
  %27 = tail call ptr @H5FL_reg_free(ptr noundef nonnull @H5_H5O_chunk_proxy_t_reg_free_list, ptr noundef nonnull %1) #3
  br label %43

28:                                               ; preds = %3
  %29 = getelementptr inbounds i8, ptr %1, i64 256
  %30 = load ptr, ptr %29, align 8
  %31 = getelementptr inbounds i8, ptr %30, i64 392
  %32 = load ptr, ptr %31, align 8
  %33 = zext i32 %5 to i64
  %34 = getelementptr inbounds %struct.H5O_chunk_t, ptr %32, i64 %33
  %35 = load i64, ptr %34, align 8
  %36 = select i1 %2, i32 2, i32 0
  %37 = tail call i32 @H5AC_unprotect(ptr noundef %0, ptr noundef nonnull @H5AC_OHDR_CHK, i64 noundef %35, ptr noundef nonnull %1, i32 noundef %36) #3
  %38 = icmp slt i32 %37, 0
  br i1 %38, label %39, label %43

39:                                               ; preds = %28
  %40 = load i64, ptr @H5E_OHDR_g, align 8
  %41 = load i64, ptr @H5E_CANTUNPROTECT_g, align 8
  %42 = tail call i32 (ptr, ptr, i32, i64, i64, ptr, ...) @H5E_printf_stack(ptr noundef nonnull @.str.1, ptr noundef nonnull @__func__.H5O__chunk_unprotect, i32 noundef 242, i64 noundef %40, i64 noundef %41, ptr noundef nonnull @.str.10) #3
  br label %43

43:                                               ; preds = %26, %28, %39, %22, %13
  %.0 = phi i32 [ -1, %13 ], [ -1, %22 ], [ 0, %26 ], [ -1, %39 ], [ 0, %28 ]
  ret i32 %.0
}